(dp0
S'bob'
p1
(dp2
S'pay'
p3
I30000
sS'job'
p4
S'dev'
p5
sS'age'
p6
I42
sS'name'
p7
S'Bob Smith'
p8
ssS'sue'
p9
(dp10
g3
F33000.0
sg4
g5
sg6
I42
sg7
S'Sue Smith'
p11
ssS'tom'
p12
(dp13
g3
I30000
sg4
g5
sg6
I3
sg7
S'Tom Tom'
p14
ss.